; Function Attrs: mustprogress nofree norecurse nosync nounwind willreturn memory(argmem: readwrite) uwtable
define hidden void @_ZN4lean4swapERNS_14name_generatorES1_(ptr noundef nonnull align 8 captures(none) dereferenceable(12) %0, ptr noundef nonnull align 8 captures(none) dereferenceable(12) %1) local_unnamed_addr #4 {
  %3 = load ptr, ptr %0, align 8, !tbaa !34
  %4 = load ptr, ptr %1, align 8, !tbaa !34
  store ptr %4, ptr %0, align 8, !tbaa !34
  store ptr %3, ptr %1, align 8, !tbaa !34
  %5 = getelementptr inbounds nuw i8, ptr %0, i64 8
  %6 = getelementptr inbounds nuw i8, ptr %1, i64 8
  %7 = load i32, ptr %5, align 8, !tbaa !35
  %8 = load i32, ptr %6, align 8, !tbaa !35
  store i32 %8, ptr %5, align 8, !tbaa !35
  store i32 %7, ptr %6, align 8, !tbaa !35
  ret void
}